target datalayout = "e-m:e-p270:32:32-p271:32:32-p272:64:64-i64:64-i128:128-f80:128-n8:16:32:64-S128"
target triple = "x86_64-pc-linux-gnu"

%class.mmu_t = type { %"class.std::map", %"class.std::vector", ptr, ptr, %class.memtracer_list_t, i64, i16, i64, [1024 x %struct.icache_entry_t], [256 x %struct.tlb_entry_t], [256 x i64], [256 x i64], [256 x i64], i8, i8, i8, ptr }
%"class.std::map" = type { %"class.std::_Rb_tree" }
%"class.std::_Rb_tree" = type { %"struct.std::_Rb_tree<unsigned long, std::pair<const unsigned long, unsigned long>, std::_Select1st<std::pair<const unsigned long, unsigned long>>, std::less<unsigned long>>::_Rb_tree_impl" }
%"struct.std::_Rb_tree<unsigned long, std::pair<const unsigned long, unsigned long>, std::_Select1st<std::pair<const unsigned long, unsigned long>>, std::less<unsigned long>>::_Rb_tree_impl" = type { [8 x i8], %"struct.std::_Rb_tree_header" }
%"struct.std::_Rb_tree_header" = type { %"struct.std::_Rb_tree_node_base", i64 }
%"struct.std::_Rb_tree_node_base" = type { i32, ptr, ptr, ptr }
%"class.std::vector" = type { %"struct.std::_Vector_base" }
%"struct.std::_Vector_base" = type { %"struct.std::_Vector_base<std::pair<unsigned long, unsigned long>, std::allocator<std::pair<unsigned long, unsigned long>>>::_Vector_impl" }
%"struct.std::_Vector_base<std::pair<unsigned long, unsigned long>, std::allocator<std::pair<unsigned long, unsigned long>>>::_Vector_impl" = type { %"struct.std::_Vector_base<std::pair<unsigned long, unsigned long>, std::allocator<std::pair<unsigned long, unsigned long>>>::_Vector_impl_data" }
%"struct.std::_Vector_base<std::pair<unsigned long, unsigned long>, std::allocator<std::pair<unsigned long, unsigned long>>>::_Vector_impl_data" = type { ptr, ptr, ptr }
%class.memtracer_list_t = type { %class.memtracer_t, %"class.std::vector.3" }
%class.memtracer_t = type { ptr }
%"class.std::vector.3" = type { %"struct.std::_Vector_base.4" }
%"struct.std::_Vector_base.4" = type { %"struct.std::_Vector_base<memtracer_t *, std::allocator<memtracer_t *>>::_Vector_impl" }
%"struct.std::_Vector_base<memtracer_t *, std::allocator<memtracer_t *>>::_Vector_impl" = type { %"struct.std::_Vector_base<memtracer_t *, std::allocator<memtracer_t *>>::_Vector_impl_data" }
%"struct.std::_Vector_base<memtracer_t *, std::allocator<memtracer_t *>>::_Vector_impl_data" = type { ptr, ptr, ptr }
%struct.icache_entry_t = type { i64, ptr, %struct.insn_fetch_t }
%struct.insn_fetch_t = type { ptr, %class.insn_t }
%class.insn_t = type { i64 }
%struct.tlb_entry_t = type { ptr, i64 }

; Function Attrs: mustprogress nounwind uwtable
define void @_ZN5mmu_t12flush_icacheEv(ptr noundef nonnull align 8 dereferenceable(43168) %0) #5 align 2 {
  %2 = alloca ptr, align 8
  %3 = alloca i64, align 8
  store ptr %0, ptr %2, align 8, !tbaa !3
  %4 = load ptr, ptr %2, align 8
  call void @llvm.lifetime.start.p0(i64 8, ptr %3) #3
  store i64 0, ptr %3, align 8, !tbaa !57
  br label %5

5:                                                ; preds = %14, %1
  %6 = load i64, ptr %3, align 8, !tbaa !57
  %7 = icmp ult i64 %6, 1024
  br i1 %7, label %9, label %8

8:                                                ; preds = %5
  call void @llvm.lifetime.end.p0(i64 8, ptr %3) #3
  br label %17

9:                                                ; preds = %5
  %10 = getelementptr inbounds nuw %class.mmu_t, ptr %4, i32 0, i32 8
  %11 = load i64, ptr %3, align 8, !tbaa !57
  %12 = getelementptr inbounds nuw [1024 x %struct.icache_entry_t], ptr %10, i64 0, i64 %11
  %13 = getelementptr inbounds nuw %struct.icache_entry_t, ptr %12, i32 0, i32 0
  store i64 -1, ptr %13, align 8, !tbaa !58
  br label %14

14:                                               ; preds = %9
  %15 = load i64, ptr %3, align 8, !tbaa !57
  %16 = add i64 %15, 1
  store i64 %16, ptr %3, align 8, !tbaa !57
  br label %5, !llvm.loop !63

17:                                               ; preds = %8
  ret void
}