; Function Attrs: mustprogress nofree norecurse nosync nounwind memory(argmem: write) uwtable
define void @_ZN5mmu_t12flush_icacheEv(ptr noundef nonnull writeonly align 8 captures(none) dereferenceable(43168) %0) local_unnamed_addr #3 align 2 {
  %2 = getelementptr inbounds nuw i8, ptr %0, i64 144
  br label %4

3:                                                ; preds = %4
  ret void

4:                                                ; preds = %1, %4
  %.03 = phi i64 [ 0, %1 ], [ %6, %4 ]
  %5 = getelementptr inbounds nuw [1024 x %struct.icache_entry_t], ptr %2, i64 0, i64 %.03
  store i64 -1, ptr %5, align 8, !tbaa !46
  %6 = add nuw nsw i64 %.03, 1
  %exitcond.not = icmp eq i64 %6, 1024
  br i1 %exitcond.not, label %3, label %4, !llvm.loop !51
}